target datalayout = "e-m:e-p270:32:32-p271:32:32-p272:64:64-i64:64-i128:128-f80:128-n8:16:32:64-S128"
target triple = "x86_64-pc-linux-gnu"

%struct.ssl_st = type { i32, i16, i16, ptr, ptr, ptr, ptr, ptr, i32, i32, ptr, ptr, i32, i32, ptr, ptr, ptr, ptr, ptr, ptr, ptr, ptr, i32, i32, [32 x i8], ptr, ptr, ptr, ptr, ptr, ptr, ptr, i64, %struct.crypto_ex_data_st, ptr, i32, i32, i32, i32, i16, ptr, i32, i64, ptr, ptr, ptr, ptr, ptr, ptr, i32, i32, ptr, ptr, i8, i8, i32 }
%struct.crypto_ex_data_st = type { ptr }
%struct.cbb_st = type { ptr, ptr, i64, i8, i8, i8 }

@tls12_sigalgs = internal constant [16 x i8] c"\06\01\06\03\05\01\05\03\04\01\04\03\02\01\02\03", align 16

; Function Attrs: nounwind uwtable
define hidden i64 @tls12_get_psigalgs(ptr noundef %0, ptr noundef %1) #0 {
  %3 = alloca ptr, align 8
  %4 = alloca ptr, align 8
  store ptr %0, ptr %3, align 8, !tbaa !69
  store ptr %1, ptr %4, align 8, !tbaa !64
  %5 = load ptr, ptr %4, align 8, !tbaa !64
  store ptr @tls12_sigalgs, ptr %5, align 8, !tbaa !55
  ret i64 16
}

; Function Attrs: nounwind uwtable
define internal i32 @ext_sigalgs_add_clienthello(ptr noundef %0, ptr noundef %1) #0 {
  %3 = alloca i32, align 4
  %4 = alloca ptr, align 8
  %5 = alloca ptr, align 8
  %6 = alloca ptr, align 8
  %7 = alloca i64, align 8
  %8 = alloca %struct.cbb_st, align 8
  %9 = alloca %struct.cbb_st, align 8
  %10 = alloca i32, align 4
  store ptr %0, ptr %4, align 8, !tbaa !69
  store ptr %1, ptr %5, align 8, !tbaa !128
  %11 = load ptr, ptr %4, align 8, !tbaa !69
  %12 = load ptr, ptr %4, align 8, !tbaa !69
  %13 = getelementptr inbounds nuw %struct.ssl_st, ptr %12, i32 0, i32 38
  %14 = load i32, ptr %13, align 4, !tbaa !130
  %15 = trunc i32 %14 to i16
  %16 = call zeroext i16 @ssl3_version_from_wire(ptr noundef %11, i16 noundef zeroext %15)
  %17 = zext i16 %16 to i32
  %18 = icmp slt i32 %17, 771
  br i1 %18, label %19, label %20

19:                                               ; preds = %2
  store i32 1, ptr %3, align 4
  br label %45

20:                                               ; preds = %2
  call void @llvm.lifetime.start.p0(i64 8, ptr %6) #8
  call void @llvm.lifetime.start.p0(i64 8, ptr %7) #8
  %21 = load ptr, ptr %4, align 8, !tbaa !69
  %22 = call i64 @tls12_get_psigalgs(ptr noundef %21, ptr noundef %6)
  store i64 %22, ptr %7, align 8, !tbaa !56
  call void @llvm.lifetime.start.p0(i64 32, ptr %8) #8
  call void @llvm.lifetime.start.p0(i64 32, ptr %9) #8
  %23 = load ptr, ptr %5, align 8, !tbaa !128
  %24 = call i32 @CBB_add_u16(ptr noundef %23, i16 noundef zeroext 13)
  %25 = icmp ne i32 %24, 0
  br i1 %25, label %26, label %42

26:                                               ; preds = %20
  %27 = load ptr, ptr %5, align 8, !tbaa !128
  %28 = call i32 @CBB_add_u16_length_prefixed(ptr noundef %27, ptr noundef %8)
  %29 = icmp ne i32 %28, 0
  br i1 %29, label %30, label %42

30:                                               ; preds = %26
  %31 = call i32 @CBB_add_u16_length_prefixed(ptr noundef %8, ptr noundef %9)
  %32 = icmp ne i32 %31, 0
  br i1 %32, label %33, label %42

33:                                               ; preds = %30
  %34 = load ptr, ptr %6, align 8, !tbaa !55
  %35 = load i64, ptr %7, align 8, !tbaa !56
  %36 = call i32 @CBB_add_bytes(ptr noundef %9, ptr noundef %34, i64 noundef %35)
  %37 = icmp ne i32 %36, 0
  br i1 %37, label %38, label %42

38:                                               ; preds = %33
  %39 = load ptr, ptr %5, align 8, !tbaa !128
  %40 = call i32 @CBB_flush(ptr noundef %39)
  %41 = icmp ne i32 %40, 0
  br i1 %41, label %43, label %42

42:                                               ; preds = %38, %33, %30, %26, %20
  store i32 0, ptr %3, align 4
  store i32 1, ptr %10, align 4
  br label %44

43:                                               ; preds = %38
  store i32 1, ptr %3, align 4
  store i32 1, ptr %10, align 4
  br label %44

44:                                               ; preds = %43, %42
  call void @llvm.lifetime.end.p0(i64 32, ptr %9) #8
  call void @llvm.lifetime.end.p0(i64 32, ptr %8) #8
  call void @llvm.lifetime.end.p0(i64 8, ptr %7) #8
  call void @llvm.lifetime.end.p0(i64 8, ptr %6) #8
  br label %45

45:                                               ; preds = %44, %19
  %46 = load i32, ptr %3, align 4
  ret i32 %46
}