; Function Attrs: nounwind uwtable
define internal range(i32 0, 2) i32 @ext_sigalgs_add_clienthello(ptr noundef %0, ptr noundef %1) #0 {
  %3 = alloca %struct.cbb_st, align 8
  %4 = alloca %struct.cbb_st, align 8
  %5 = getelementptr inbounds nuw i8, ptr %0, i64 276
  %6 = load i32, ptr %5, align 4, !tbaa !109
  %7 = trunc i32 %6 to i16
  %8 = tail call zeroext i16 @ssl3_version_from_wire(ptr noundef %0, i16 noundef zeroext %7) #21
  %9 = icmp ult i16 %8, 771
  br i1 %9, label %21, label %10

10:                                               ; preds = %2
  call void @llvm.lifetime.start.p0(i64 32, ptr nonnull %3) #21
  call void @llvm.lifetime.start.p0(i64 32, ptr nonnull %4) #21
  %11 = tail call i32 @CBB_add_u16(ptr noundef %1, i16 noundef zeroext 13) #21
  %.not = icmp eq i32 %11, 0
  br i1 %.not, label %20, label %12

12:                                               ; preds = %10
  %13 = call i32 @CBB_add_u16_length_prefixed(ptr noundef %1, ptr noundef nonnull %3) #21
  %.not7 = icmp eq i32 %13, 0
  br i1 %.not7, label %20, label %14

14:                                               ; preds = %12
  %15 = call i32 @CBB_add_u16_length_prefixed(ptr noundef nonnull %3, ptr noundef nonnull %4) #21
  %.not8 = icmp eq i32 %15, 0
  br i1 %.not8, label %20, label %16

16:                                               ; preds = %14
  %17 = call i32 @CBB_add_bytes(ptr noundef nonnull %4, ptr noundef nonnull @tls12_sigalgs, i64 noundef 16) #21
  %.not9 = icmp eq i32 %17, 0
  br i1 %.not9, label %20, label %18

18:                                               ; preds = %16
  %19 = call i32 @CBB_flush(ptr noundef %1) #21
  %.not10 = icmp ne i32 %19, 0
  %spec.select = zext i1 %.not10 to i32
  br label %20

20:                                               ; preds = %18, %10, %12, %14, %16
  %.1 = phi i32 [ 0, %16 ], [ 0, %14 ], [ 0, %12 ], [ 0, %10 ], [ %spec.select, %18 ]
  call void @llvm.lifetime.end.p0(i64 32, ptr nonnull %4) #21
  call void @llvm.lifetime.end.p0(i64 32, ptr nonnull %3) #21
  br label %21

21:                                               ; preds = %2, %20
  %.0 = phi i32 [ %.1, %20 ], [ 1, %2 ]
  ret i32 %.0
}